; Function Attrs: mustprogress nounwind uwtable
define hidden void @_ZN6hermes3hbc20BCProviderFromBuffer27adviseStringTableSequentialEv(ptr nocapture noundef nonnull readonly align 8 dereferenceable(376) %this) unnamed_addr #0 align 2 {
entry:
  %stringKinds_ = getelementptr inbounds i8, ptr %this, i64 24
  %0 = load ptr, ptr %stringKinds_, align 8
  %stringStorage_ = getelementptr inbounds i8, ptr %this, i64 56
  %1 = load ptr, ptr %stringStorage_, align 8
  %sub.ptr.lhs.cast = ptrtoint ptr %1 to i64
  %call.i = tail call noundef i64 @_ZN6hermes8oscompat9page_sizeEv() #19
  %add.ptr.i = getelementptr inbounds i8, ptr %0, i64 1
  %2 = ptrtoint ptr %add.ptr.i to i64
  %add.i.i = add i64 %call.i, -1
  %sub.i.i = add i64 %add.i.i, %2
  %not.i.i = sub i64 0, %call.i
  %and.i.i = and i64 %sub.i.i, %not.i.i
  %sub.i = sub i64 %and.i.i, %call.i
  %3 = inttoptr i64 %sub.i to ptr
  %add.i = sub i64 %sub.ptr.lhs.cast, %sub.i
  %call5 = tail call noundef zeroext i1 @_ZN6hermes8oscompat10vm_madviseEPvmNS0_7MAdviceE(ptr noundef %3, i64 noundef %add.i, i32 noundef 1) #19
  ret void
}